target datalayout = "e-m:e-p270:32:32-p271:32:32-p272:64:64-i64:64-i128:128-f80:128-n8:16:32:64-S128"
target triple = "x86_64-pc-linux-gnu"

%"struct.OpenImageIO::v3_1_0::TypeDesc" = type { i8, i8, i8, i8, i32 }
%"class.OpenImageIO::v3_1_0::DPXOutput" = type { %"class.OpenImageIO::v3_1_0::ImageOutput", ptr, %"class.dpx::Writer", %"class.std::vector.12", %"class.std::vector.12", i32, i32, i32, i32, i32, i32, i8, i8, i64, i32, i32, %"class.std::vector.17", i8, i32, %"class.std::vector.12" }
%"class.OpenImageIO::v3_1_0::ImageOutput" = type { ptr, %"class.OpenImageIO::v3_1_0::ImageSpec", %"class.std::unique_ptr" }
%"class.OpenImageIO::v3_1_0::ImageSpec" = type { i32, i32, i32, i32, i32, i32, i32, i32, i32, i32, i32, i32, i32, i32, i32, i32, %"struct.OpenImageIO::v3_1_0::TypeDesc", %"class.std::vector", %"class.std::vector.0", i32, i32, i8, %"class.OpenImageIO::v3_1_0::ParamValueList" }
%"class.std::vector" = type { %"struct.std::_Vector_base" }
%"struct.std::_Vector_base" = type { %"struct.std::_Vector_base<OpenImageIO::v3_1_0::TypeDesc, std::allocator<OpenImageIO::v3_1_0::TypeDesc>>::_Vector_impl" }
%"struct.std::_Vector_base<OpenImageIO::v3_1_0::TypeDesc, std::allocator<OpenImageIO::v3_1_0::TypeDesc>>::_Vector_impl" = type { %"struct.std::_Vector_base<OpenImageIO::v3_1_0::TypeDesc, std::allocator<OpenImageIO::v3_1_0::TypeDesc>>::_Vector_impl_data" }
%"struct.std::_Vector_base<OpenImageIO::v3_1_0::TypeDesc, std::allocator<OpenImageIO::v3_1_0::TypeDesc>>::_Vector_impl_data" = type { ptr, ptr, ptr }
%"class.std::vector.0" = type { %"struct.std::_Vector_base.1" }
%"struct.std::_Vector_base.1" = type { %"struct.std::_Vector_base<std::__cxx11::basic_string<char>, std::allocator<std::__cxx11::basic_string<char>>>::_Vector_impl" }
%"struct.std::_Vector_base<std::__cxx11::basic_string<char>, std::allocator<std::__cxx11::basic_string<char>>>::_Vector_impl" = type { %"struct.std::_Vector_base<std::__cxx11::basic_string<char>, std::allocator<std::__cxx11::basic_string<char>>>::_Vector_impl_data" }
%"struct.std::_Vector_base<std::__cxx11::basic_string<char>, std::allocator<std::__cxx11::basic_string<char>>>::_Vector_impl_data" = type { ptr, ptr, ptr }
%"class.OpenImageIO::v3_1_0::ParamValueList" = type { %"class.std::vector.5" }
%"class.std::vector.5" = type { %"struct.std::_Vector_base.6" }
%"struct.std::_Vector_base.6" = type { %"struct.std::_Vector_base<OpenImageIO::v3_1_0::ParamValue, std::allocator<OpenImageIO::v3_1_0::ParamValue>>::_Vector_impl" }
%"struct.std::_Vector_base<OpenImageIO::v3_1_0::ParamValue, std::allocator<OpenImageIO::v3_1_0::ParamValue>>::_Vector_impl" = type { %"struct.std::_Vector_base<OpenImageIO::v3_1_0::ParamValue, std::allocator<OpenImageIO::v3_1_0::ParamValue>>::_Vector_impl_data" }
%"struct.std::_Vector_base<OpenImageIO::v3_1_0::ParamValue, std::allocator<OpenImageIO::v3_1_0::ParamValue>>::_Vector_impl_data" = type { ptr, ptr, ptr }
%"class.std::unique_ptr" = type { %"struct.std::__uniq_ptr_data" }
%"struct.std::__uniq_ptr_data" = type { %"class.std::__uniq_ptr_impl" }
%"class.std::__uniq_ptr_impl" = type { %"class.std::tuple" }
%"class.std::tuple" = type { %"struct.std::_Tuple_impl" }
%"struct.std::_Tuple_impl" = type { %"struct.std::_Tuple_impl.10", %"struct.std::_Head_base.11" }
%"struct.std::_Tuple_impl.10" = type { %"struct.std::_Head_base" }
%"struct.std::_Head_base" = type { ptr }
%"struct.std::_Head_base.11" = type { ptr }
%"class.dpx::Writer" = type { ptr, %"struct.dpx::Header", i64, ptr }
%"struct.dpx::Header" = type <{ %"struct.dpx::GenericHeader", %"struct.dpx::IndustryHeader", i8, [3 x i8] }>
%"struct.dpx::GenericHeader" = type { i32, i32, [8 x i8], i32, i32, i32, i32, i32, [100 x i8], [24 x i8], [100 x i8], [200 x i8], [200 x i8], i32, [104 x i8], i16, i16, i32, i32, [8 x %"struct.dpx::ImageElement"], [52 x i8], i32, i32, float, float, i32, i32, [100 x i8], [24 x i8], [32 x i8], [32 x i8], [4 x i16], [2 x i32], float, float, [20 x i8] }
%"struct.dpx::ImageElement" = type { i32, i32, float, i32, float, i8, i8, i8, i8, i16, i16, i32, i32, i32, [32 x i8] }
%"struct.dpx::IndustryHeader" = type { [2 x i8], [2 x i8], [2 x i8], [6 x i8], [4 x i8], [32 x i8], i32, i32, i32, float, float, [32 x i8], [100 x i8], [56 x i8], i32, i32, i8, i8, i8, i8, float, float, float, float, float, float, float, float, float, float, [76 x i8] }
%"class.std::vector.17" = type { %"struct.std::_Vector_base.18" }
%"struct.std::_Vector_base.18" = type { %"struct.std::_Vector_base<OpenImageIO::v3_1_0::ImageSpec, std::allocator<OpenImageIO::v3_1_0::ImageSpec>>::_Vector_impl" }
%"struct.std::_Vector_base<OpenImageIO::v3_1_0::ImageSpec, std::allocator<OpenImageIO::v3_1_0::ImageSpec>>::_Vector_impl" = type { %"struct.std::_Vector_base<OpenImageIO::v3_1_0::ImageSpec, std::allocator<OpenImageIO::v3_1_0::ImageSpec>>::_Vector_impl_data" }
%"struct.std::_Vector_base<OpenImageIO::v3_1_0::ImageSpec, std::allocator<OpenImageIO::v3_1_0::ImageSpec>>::_Vector_impl_data" = type { ptr, ptr, ptr }
%"class.std::vector.12" = type { %"struct.std::_Vector_base.13" }
%"struct.std::_Vector_base.13" = type { %"struct.std::_Vector_base<unsigned char, std::allocator<unsigned char>>::_Vector_impl" }
%"struct.std::_Vector_base<unsigned char, std::allocator<unsigned char>>::_Vector_impl" = type { %"struct.std::_Vector_base<unsigned char, std::allocator<unsigned char>>::_Vector_impl_data" }
%"struct.std::_Vector_base<unsigned char, std::allocator<unsigned char>>::_Vector_impl_data" = type { ptr, ptr, ptr }

@.str.78 = private unnamed_addr constant [44 x i8] c"write_scanline called but file is not open.\00", align 1

; Function Attrs: inlinehint mustprogress nounwind uwtable
define linkonce_odr void @_ZSt19__iterator_categoryIPhENSt15iterator_traitsIT_E17iterator_categoryERKS2_(ptr noundef nonnull align 8 dereferenceable(8) %0) #0 comdat {
  %2 = alloca ptr, align 8
  store ptr %0, ptr %2, align 8, !tbaa !204
  ret void
}

; Function Attrs: mustprogress nounwind uwtable
define linkonce_odr noundef i64 @_ZNK11OpenImageIO6v3_1_08TypeDesc11elementsizeEv(ptr noundef nonnull align 4 dereferenceable(8) %0) #7 comdat align 2 {
  %2 = alloca ptr, align 8
  store ptr %0, ptr %2, align 8, !tbaa !154
  %3 = load ptr, ptr %2, align 8
  %4 = getelementptr inbounds nuw %"struct.OpenImageIO::v3_1_0::TypeDesc", ptr %3, i32 0, i32 1
  %5 = load i8, ptr %4, align 1, !tbaa !158
  %6 = zext i8 %5 to i64
  %7 = call noundef i64 @_ZNK11OpenImageIO6v3_1_08TypeDesc8basesizeEv(ptr noundef nonnull align 4 dereferenceable(8) %3) #5
  %8 = mul i64 %6, %7
  ret i64 %8
}

; Function Attrs: mustprogress uwtable
define linkonce_odr void @_ZNSt6vectorIhSaIhEE18_M_assign_dispatchIPhEEvT_S4_St12__false_type(ptr noundef nonnull align 8 dereferenceable(24) %0, ptr noundef %1, ptr noundef %2) #6 comdat align 2 {
  %4 = alloca ptr, align 8
  %5 = alloca ptr, align 8
  %6 = alloca ptr, align 8
  store ptr %0, ptr %4, align 8, !tbaa !66
  store ptr %1, ptr %5, align 8, !tbaa !90
  store ptr %2, ptr %6, align 8, !tbaa !90
  %7 = load ptr, ptr %4, align 8
  %8 = load ptr, ptr %5, align 8, !tbaa !90
  %9 = load ptr, ptr %6, align 8, !tbaa !90
  call void @_ZSt19__iterator_categoryIPhENSt15iterator_traitsIT_E17iterator_categoryERKS2_(ptr noundef nonnull align 8 dereferenceable(8) %5)
  call void @_ZNSt6vectorIhSaIhEE13_M_assign_auxIPhEEvT_S4_St20forward_iterator_tag(ptr noundef nonnull align 8 dereferenceable(24) %7, ptr noundef %8, ptr noundef %9)
  ret void
}

; Function Attrs: mustprogress nounwind uwtable
define linkonce_odr noundef i64 @_ZNK11OpenImageIO6v3_1_08TypeDesc4sizeEv(ptr noundef nonnull align 4 dereferenceable(8) %0) #7 comdat align 2 {
  %2 = alloca ptr, align 8
  %3 = alloca i64, align 8
  store ptr %0, ptr %2, align 8, !tbaa !154
  %4 = load ptr, ptr %2, align 8
  call void @llvm.lifetime.start.p0(i64 8, ptr %3) #5
  %5 = getelementptr inbounds nuw %"struct.OpenImageIO::v3_1_0::TypeDesc", ptr %4, i32 0, i32 4
  %6 = load i32, ptr %5, align 4, !tbaa !200
  %7 = icmp sgt i32 %6, 0
  br i1 %7, label %8, label %11

8:                                                ; preds = %1
  %9 = getelementptr inbounds nuw %"struct.OpenImageIO::v3_1_0::TypeDesc", ptr %4, i32 0, i32 4
  %10 = load i32, ptr %9, align 4, !tbaa !200
  br label %12

11:                                               ; preds = %1
  br label %12

12:                                               ; preds = %11, %8
  %13 = phi i32 [ %10, %8 ], [ 1, %11 ]
  %14 = sext i32 %13 to i64
  store i64 %14, ptr %3, align 8, !tbaa !93
  %15 = load i64, ptr %3, align 8, !tbaa !93
  %16 = call noundef i64 @_ZNK11OpenImageIO6v3_1_08TypeDesc11elementsizeEv(ptr noundef nonnull align 4 dereferenceable(8) %4) #5
  %17 = mul i64 %15, %16
  call void @llvm.lifetime.end.p0(i64 8, ptr %3) #5
  ret i64 %17
}

; Function Attrs: mustprogress nounwind uwtable
define linkonce_odr noundef nonnull align 1 dereferenceable(1) ptr @_ZNSt6vectorIhSaIhEEixEm(ptr noundef nonnull align 8 dereferenceable(24) %0, i64 noundef %1) #7 comdat align 2 {
  %3 = alloca ptr, align 8
  %4 = alloca i64, align 8
  store ptr %0, ptr %3, align 8, !tbaa !66
  store i64 %1, ptr %4, align 8, !tbaa !93
  %5 = load ptr, ptr %3, align 8
  %6 = getelementptr inbounds nuw %"struct.std::_Vector_base.13", ptr %5, i32 0, i32 0
  %7 = getelementptr inbounds nuw %"struct.std::_Vector_base<unsigned char, std::allocator<unsigned char>>::_Vector_impl_data", ptr %6, i32 0, i32 0
  %8 = load ptr, ptr %7, align 8, !tbaa !73
  %9 = load i64, ptr %4, align 8, !tbaa !93
  %10 = getelementptr inbounds nuw i8, ptr %8, i64 %9
  ret ptr %10
}

; Function Attrs: mustprogress uwtable
define linkonce_odr void @_ZNSt6vectorIhSaIhEE6assignIPhvEEvT_S4_(ptr noundef nonnull align 8 dereferenceable(24) %0, ptr noundef %1, ptr noundef %2) #6 comdat align 2 {
  %4 = alloca ptr, align 8
  %5 = alloca ptr, align 8
  %6 = alloca ptr, align 8
  store ptr %0, ptr %4, align 8, !tbaa !66
  store ptr %1, ptr %5, align 8, !tbaa !90
  store ptr %2, ptr %6, align 8, !tbaa !90
  %7 = load ptr, ptr %4, align 8
  %8 = load ptr, ptr %5, align 8, !tbaa !90
  %9 = load ptr, ptr %6, align 8, !tbaa !90
  call void @_ZNSt6vectorIhSaIhEE18_M_assign_dispatchIPhEEvT_S4_St12__false_type(ptr noundef nonnull align 8 dereferenceable(24) %7, ptr noundef %8, ptr noundef %9)
  ret void
}

; Function Attrs: mustprogress nounwind uwtable
define linkonce_odr void @_ZN11OpenImageIO6v3_1_09ImageSpec11auto_strideERlNS0_8TypeDescEi(ptr noundef nonnull align 8 dereferenceable(8) %0, i64 %1, i32 noundef %2) #7 comdat align 2 {
  %4 = alloca %"struct.OpenImageIO::v3_1_0::TypeDesc", align 4
  %5 = alloca ptr, align 8
  %6 = alloca i32, align 4
  store i64 %1, ptr %4, align 4
  store ptr %0, ptr %5, align 8, !tbaa !208
  store i32 %2, ptr %6, align 4, !tbaa !84
  %7 = load ptr, ptr %5, align 8, !tbaa !208
  %8 = load i64, ptr %7, align 8, !tbaa !93
  %9 = icmp eq i64 %8, -9223372036854775808
  br i1 %9, label %10, label %16

10:                                               ; preds = %3
  %11 = load i32, ptr %6, align 4, !tbaa !84
  %12 = sext i32 %11 to i64
  %13 = call noundef i64 @_ZNK11OpenImageIO6v3_1_08TypeDesc4sizeEv(ptr noundef nonnull align 4 dereferenceable(8) %4) #5
  %14 = mul i64 %12, %13
  %15 = load ptr, ptr %5, align 8, !tbaa !208
  store i64 %14, ptr %15, align 8, !tbaa !93
  br label %16

16:                                               ; preds = %10, %3
  ret void
}

; Function Attrs: mustprogress nounwind uwtable
define linkonce_odr noundef nonnull align 8 dereferenceable(160) ptr @_ZNSt6vectorIN11OpenImageIO6v3_1_09ImageSpecESaIS2_EEixEm(ptr noundef nonnull align 8 dereferenceable(24) %0, i64 noundef %1) #7 comdat align 2 {
  %3 = alloca ptr, align 8
  %4 = alloca i64, align 8
  store ptr %0, ptr %3, align 8, !tbaa !68
  store i64 %1, ptr %4, align 8, !tbaa !93
  %5 = load ptr, ptr %3, align 8
  %6 = getelementptr inbounds nuw %"struct.std::_Vector_base.18", ptr %5, i32 0, i32 0
  %7 = getelementptr inbounds nuw %"struct.std::_Vector_base<OpenImageIO::v3_1_0::ImageSpec, std::allocator<OpenImageIO::v3_1_0::ImageSpec>>::_Vector_impl_data", ptr %6, i32 0, i32 0
  %8 = load ptr, ptr %7, align 8, !tbaa !75
  %9 = load i64, ptr %4, align 8, !tbaa !93
  %10 = getelementptr inbounds nuw %"class.OpenImageIO::v3_1_0::ImageSpec", ptr %8, i64 %9
  ret ptr %10
}

; Function Attrs: mustprogress nounwind uwtable
define linkonce_odr hidden noundef zeroext i1 @_ZNK11OpenImageIO6v3_1_09DPXOutput9is_openedEv(ptr noundef nonnull align 8 dereferenceable(2424) %0) #7 comdat align 2 {
  %2 = alloca ptr, align 8
  store ptr %0, ptr %2, align 8, !tbaa !8
  %3 = load ptr, ptr %2, align 8
  %4 = getelementptr inbounds nuw %"class.OpenImageIO::v3_1_0::DPXOutput", ptr %3, i32 0, i32 1
  %5 = load ptr, ptr %4, align 8, !tbaa !12
  %6 = icmp ne ptr %5, null
  ret i1 %6
}

; Function Attrs: mustprogress uwtable
define hidden noundef zeroext i1 @_ZN11OpenImageIO6v3_1_09DPXOutput14write_scanlineEiiNS0_8TypeDescEPKvl(ptr noundef nonnull align 8 dereferenceable(2424) %0, i32 noundef %1, i32 noundef %2, i64 %3, ptr noundef %4, i64 noundef %5) unnamed_addr #6 align 2 {
  %7 = alloca i1, align 1
  %8 = alloca %"struct.OpenImageIO::v3_1_0::TypeDesc", align 4
  %9 = alloca ptr, align 8
  %10 = alloca i32, align 4
  %11 = alloca i32, align 4
  %12 = alloca ptr, align 8
  %13 = alloca i64, align 8
  %14 = alloca ptr, align 8
  %15 = alloca %"struct.OpenImageIO::v3_1_0::TypeDesc", align 4
  %16 = alloca ptr, align 8
  %17 = alloca %"struct.OpenImageIO::v3_1_0::TypeDesc", align 4
  %18 = alloca ptr, align 8
  %19 = alloca i32, align 4
  store i64 %3, ptr %8, align 4
  store ptr %0, ptr %9, align 8, !tbaa !8
  store i32 %1, ptr %10, align 4, !tbaa !84
  store i32 %2, ptr %11, align 4, !tbaa !84
  store ptr %4, ptr %12, align 8, !tbaa !207
  store i64 %5, ptr %13, align 8, !tbaa !93
  %20 = load ptr, ptr %9, align 8
  %21 = call noundef zeroext i1 @_ZNK11OpenImageIO6v3_1_09DPXOutput9is_openedEv(ptr noundef nonnull align 8 dereferenceable(2424) %20)
  br i1 %21, label %23, label %22

22:                                               ; preds = %6
  call void @_ZNK11OpenImageIO6v3_1_011ImageOutput8errorfmtIJEEEvPKcDpRKT_(ptr noundef nonnull align 8 dereferenceable(184) %20, ptr noundef @.str.78)
  store i1 false, ptr %7, align 1
  br label %93

23:                                               ; preds = %6
  %24 = getelementptr inbounds nuw %"class.OpenImageIO::v3_1_0::DPXOutput", ptr %20, i32 0, i32 17
  store i8 1, ptr %24, align 8, !tbaa !72
  call void @llvm.lifetime.start.p0(i64 8, ptr %14) #5
  %25 = getelementptr inbounds nuw %"class.OpenImageIO::v3_1_0::DPXOutput", ptr %20, i32 0, i32 16
  %26 = getelementptr inbounds nuw %"class.OpenImageIO::v3_1_0::DPXOutput", ptr %20, i32 0, i32 14
  %27 = load i32, ptr %26, align 8, !tbaa !70
  %28 = sext i32 %27 to i64
  %29 = call noundef nonnull align 8 dereferenceable(160) ptr @_ZNSt6vectorIN11OpenImageIO6v3_1_09ImageSpecESaIS2_EEixEm(ptr noundef nonnull align 8 dereferenceable(24) %25, i64 noundef %28) #5
  store ptr %29, ptr %14, align 8, !tbaa !78
  call void @llvm.memcpy.p0.p0.i64(ptr align 4 %15, ptr align 4 %8, i64 8, i1 false), !tbaa.struct !82
  %30 = load ptr, ptr %14, align 8, !tbaa !78
  %31 = getelementptr inbounds nuw %"class.OpenImageIO::v3_1_0::ImageSpec", ptr %30, i32 0, i32 15
  %32 = load i32, ptr %31, align 4, !tbaa !121
  %33 = load i64, ptr %15, align 4
  call void @_ZN11OpenImageIO6v3_1_09ImageSpec11auto_strideERlNS0_8TypeDescEi(ptr noundef nonnull align 8 dereferenceable(8) %13, i64 %33, i32 noundef %32) #5
  call void @llvm.lifetime.start.p0(i64 8, ptr %16) #5
  %34 = load ptr, ptr %12, align 8, !tbaa !207
  store ptr %34, ptr %16, align 8, !tbaa !207
  call void @llvm.memcpy.p0.p0.i64(ptr align 4 %17, ptr align 4 %8, i64 8, i1 false), !tbaa.struct !82
  %35 = load ptr, ptr %12, align 8, !tbaa !207
  %36 = load i64, ptr %13, align 8, !tbaa !93
  %37 = getelementptr inbounds nuw %"class.OpenImageIO::v3_1_0::DPXOutput", ptr %20, i32 0, i32 4
  %38 = getelementptr inbounds nuw %"class.OpenImageIO::v3_1_0::DPXOutput", ptr %20, i32 0, i32 18
  %39 = load i32, ptr %38, align 4, !tbaa !117
  %40 = load i32, ptr %10, align 4, !tbaa !84
  %41 = load i32, ptr %11, align 4, !tbaa !84
  %42 = load i64, ptr %17, align 4
  %43 = call noundef ptr @_ZN11OpenImageIO6v3_1_011ImageOutput18to_native_scanlineENS0_8TypeDescEPKvlRSt6vectorIhSaIhEEjii(ptr noundef nonnull align 8 dereferenceable(184) %20, i64 %42, ptr noundef %35, i64 noundef %36, ptr noundef nonnull align 8 dereferenceable(24) %37, i32 noundef %39, i32 noundef %40, i32 noundef %41)
  store ptr %43, ptr %12, align 8, !tbaa !207
  %44 = load ptr, ptr %12, align 8, !tbaa !207
  %45 = load ptr, ptr %16, align 8, !tbaa !207
  %46 = icmp eq ptr %44, %45
  br i1 %46, label %47, label %56

47:                                               ; preds = %23
  %48 = getelementptr inbounds nuw %"class.OpenImageIO::v3_1_0::DPXOutput", ptr %20, i32 0, i32 4
  %49 = load ptr, ptr %12, align 8, !tbaa !207
  %50 = load ptr, ptr %12, align 8, !tbaa !207
  %51 = load ptr, ptr %14, align 8, !tbaa !78
  %52 = call noundef i64 @_ZNK11OpenImageIO6v3_1_09ImageSpec14scanline_bytesEb(ptr noundef nonnull align 8 dereferenceable(160) %51, i1 noundef zeroext false) #5
  %53 = getelementptr inbounds nuw i8, ptr %50, i64 %52
  call void @_ZNSt6vectorIhSaIhEE6assignIPhvEEvT_S4_(ptr noundef nonnull align 8 dereferenceable(24) %48, ptr noundef %49, ptr noundef %53)
  %54 = getelementptr inbounds nuw %"class.OpenImageIO::v3_1_0::DPXOutput", ptr %20, i32 0, i32 4
  %55 = call noundef nonnull align 1 dereferenceable(1) ptr @_ZNSt6vectorIhSaIhEEixEm(ptr noundef nonnull align 8 dereferenceable(24) %54, i64 noundef 0) #5
  store ptr %55, ptr %12, align 8, !tbaa !207
  br label %56

56:                                               ; preds = %47, %23
  call void @llvm.lifetime.start.p0(i64 8, ptr %18) #5
  %57 = getelementptr inbounds nuw %"class.OpenImageIO::v3_1_0::DPXOutput", ptr %20, i32 0, i32 3
  %58 = load i32, ptr %10, align 4, !tbaa !84
  %59 = load ptr, ptr %14, align 8, !tbaa !78
  %60 = getelementptr inbounds nuw %"class.OpenImageIO::v3_1_0::ImageSpec", ptr %59, i32 0, i32 1
  %61 = load i32, ptr %60, align 4, !tbaa !80
  %62 = sub nsw i32 %58, %61
  %63 = sext i32 %62 to i64
  %64 = getelementptr inbounds nuw %"class.OpenImageIO::v3_1_0::DPXOutput", ptr %20, i32 0, i32 13
  %65 = load i64, ptr %64, align 8, !tbaa !123
  %66 = mul nsw i64 %63, %65
  %67 = call noundef nonnull align 1 dereferenceable(1) ptr @_ZNSt6vectorIhSaIhEEixEm(ptr noundef nonnull align 8 dereferenceable(24) %57, i64 noundef %66) #5
  store ptr %67, ptr %18, align 8, !tbaa !90
  %68 = getelementptr inbounds nuw %"class.OpenImageIO::v3_1_0::DPXOutput", ptr %20, i32 0, i32 11
  %69 = load i8, ptr %68, align 8, !tbaa !122, !range !85, !noundef !86
  %70 = trunc i8 %69 to i1
  br i1 %70, label %71, label %76

71:                                               ; preds = %56
  %72 = load ptr, ptr %18, align 8, !tbaa !90
  %73 = load ptr, ptr %12, align 8, !tbaa !207
  %74 = load ptr, ptr %14, align 8, !tbaa !78
  %75 = call noundef i64 @_ZNK11OpenImageIO6v3_1_09ImageSpec14scanline_bytesEb(ptr noundef nonnull align 8 dereferenceable(160) %74, i1 noundef zeroext false) #5
  call void @llvm.memcpy.p0.p0.i64(ptr align 1 %72, ptr align 1 %73, i64 %75, i1 false)
  br label %91

76:                                               ; preds = %56
  %77 = getelementptr inbounds nuw %"class.OpenImageIO::v3_1_0::DPXOutput", ptr %20, i32 0, i32 6
  %78 = load i32, ptr %77, align 4, !tbaa !105
  %79 = getelementptr inbounds nuw %"class.OpenImageIO::v3_1_0::DPXOutput", ptr %20, i32 0, i32 5
  %80 = load i32, ptr %79, align 8, !tbaa !119
  %81 = getelementptr inbounds nuw %"class.OpenImageIO::v3_1_0::DPXOutput", ptr %20, i32 0, i32 7
  %82 = load i32, ptr %81, align 8, !tbaa !107
  %83 = load ptr, ptr %14, align 8, !tbaa !78
  %84 = getelementptr inbounds nuw %"class.OpenImageIO::v3_1_0::ImageSpec", ptr %83, i32 0, i32 3
  %85 = load i32, ptr %84, align 4, !tbaa !103
  %86 = load ptr, ptr %12, align 8, !tbaa !207
  %87 = load ptr, ptr %18, align 8, !tbaa !90
  %88 = call noundef zeroext i1 @_ZN3dpx15ConvertToNativeENS_10DescriptorENS_8DataSizeENS_14CharacteristicEiiPKvPv(i32 noundef %78, i32 noundef %80, i32 noundef %82, i32 noundef %85, i32 noundef 1, ptr noundef %86, ptr noundef %87)
  br i1 %88, label %90, label %89

89:                                               ; preds = %76
  store i1 false, ptr %7, align 1
  store i32 1, ptr %19, align 4
  br label %92

90:                                               ; preds = %76
  br label %91

91:                                               ; preds = %90, %71
  store i1 true, ptr %7, align 1
  store i32 1, ptr %19, align 4
  br label %92

92:                                               ; preds = %91, %89
  call void @llvm.lifetime.end.p0(i64 8, ptr %18) #5
  call void @llvm.lifetime.end.p0(i64 8, ptr %16) #5
  call void @llvm.lifetime.end.p0(i64 8, ptr %14) #5
  br label %93

93:                                               ; preds = %92, %22
  %94 = load i1, ptr %7, align 1
  ret i1 %94
}