; Function Attrs: mustprogress uwtable
define hidden noundef zeroext i1 @_ZN11OpenImageIO6v3_1_09DPXOutput14write_scanlineEiiNS0_8TypeDescEPKvl(ptr noundef nonnull align 8 dereferenceable(2424) %0, i32 noundef %1, i32 noundef %2, i64 %3, ptr noundef %4, i64 noundef %5) unnamed_addr #5 align 2 {
  %7 = alloca %"struct.OpenImageIO::v3_1_0::TypeDesc", align 8
  %8 = getelementptr inbounds nuw i8, ptr %0, i64 184
  %9 = load ptr, ptr %8, align 8, !tbaa !6
  %.not = icmp eq ptr %9, null
  br i1 %.not, label %10, label %11

10:                                               ; preds = %6
  tail call void @_ZNK11OpenImageIO6v3_1_011ImageOutput8errorfmtIJEEEvPKcDpRKT_(ptr noundef nonnull align 8 dereferenceable(184) %0, ptr noundef nonnull @.str.78)
  br label %68

11:                                               ; preds = %6
  %12 = getelementptr inbounds nuw i8, ptr %0, i64 2392
  store i8 1, ptr %12, align 8, !tbaa !68
  %13 = getelementptr inbounds nuw i8, ptr %0, i64 2368
  %14 = getelementptr inbounds nuw i8, ptr %0, i64 2360
  %15 = load i32, ptr %14, align 8, !tbaa !64
  %16 = sext i32 %15 to i64
  %17 = load ptr, ptr %13, align 8, !tbaa !66
  %18 = getelementptr inbounds nuw %"class.OpenImageIO::v3_1_0::ImageSpec", ptr %17, i64 %16
  %19 = getelementptr inbounds nuw i8, ptr %18, i64 60
  %20 = load i32, ptr %19, align 4, !tbaa !196
  call void @llvm.lifetime.start.p0(i64 8, ptr nonnull %7)
  store i64 %3, ptr %7, align 8
  %21 = icmp eq i64 %5, -9223372036854775808
  br i1 %21, label %22, label %_ZN11OpenImageIO6v3_1_09ImageSpec11auto_strideERlNS0_8TypeDescEi.exit

22:                                               ; preds = %11
  %23 = lshr i64 %3, 8
  %24 = lshr i64 %3, 32
  %25 = trunc nuw i64 %24 to i32
  %26 = sext i32 %20 to i64
  %narrow.i.i = tail call i32 @llvm.smax.i32(i32 %25, i32 1)
  %spec.select.i.i = zext nneg i32 %narrow.i.i to i64
  %27 = and i64 %23, 255
  %28 = call noundef i64 @_ZNK11OpenImageIO6v3_1_08TypeDesc8basesizeEv(ptr noundef nonnull align 4 dereferenceable(8) %7) #25
  %29 = mul nuw nsw i64 %27, %spec.select.i.i
  %30 = mul i64 %29, %26
  %31 = mul i64 %30, %28
  br label %_ZN11OpenImageIO6v3_1_09ImageSpec11auto_strideERlNS0_8TypeDescEi.exit

_ZN11OpenImageIO6v3_1_09ImageSpec11auto_strideERlNS0_8TypeDescEi.exit: ; preds = %11, %22
  %.026 = phi i64 [ %31, %22 ], [ %5, %11 ]
  call void @llvm.lifetime.end.p0(i64 8, ptr nonnull %7)
  %32 = getelementptr inbounds nuw i8, ptr %0, i64 2296
  %33 = getelementptr inbounds nuw i8, ptr %0, i64 2396
  %34 = load i32, ptr %33, align 4, !tbaa !178
  %35 = call noundef ptr @_ZN11OpenImageIO6v3_1_011ImageOutput18to_native_scanlineENS0_8TypeDescEPKvlRSt6vectorIhSaIhEEjii(ptr noundef nonnull align 8 dereferenceable(184) %0, i64 %3, ptr noundef %4, i64 noundef %.026, ptr noundef nonnull align 8 dereferenceable(24) %32, i32 noundef %34, i32 noundef %1, i32 noundef %2)
  %36 = icmp eq ptr %35, %4
  br i1 %36, label %37, label %41

37:                                               ; preds = %_ZN11OpenImageIO6v3_1_09ImageSpec11auto_strideERlNS0_8TypeDescEi.exit
  %38 = call noundef i64 @_ZNK11OpenImageIO6v3_1_09ImageSpec14scanline_bytesEb(ptr noundef nonnull align 8 dereferenceable(160) %18, i1 noundef zeroext false) #25
  %39 = getelementptr inbounds nuw i8, ptr %35, i64 %38
  call void @_ZNSt6vectorIhSaIhEE13_M_assign_auxIPhEEvT_S4_St20forward_iterator_tag(ptr noundef nonnull align 8 dereferenceable(24) %32, ptr noundef %35, ptr noundef %39)
  %40 = load ptr, ptr %32, align 8, !tbaa !62
  br label %41

41:                                               ; preds = %37, %_ZN11OpenImageIO6v3_1_09ImageSpec11auto_strideERlNS0_8TypeDescEi.exit
  %.022 = phi ptr [ %40, %37 ], [ %35, %_ZN11OpenImageIO6v3_1_09ImageSpec11auto_strideERlNS0_8TypeDescEi.exit ]
  %42 = getelementptr inbounds nuw i8, ptr %0, i64 2272
  %43 = getelementptr inbounds nuw i8, ptr %18, i64 4
  %44 = load i32, ptr %43, align 4, !tbaa !72
  %45 = sub nsw i32 %1, %44
  %46 = sext i32 %45 to i64
  %47 = getelementptr inbounds nuw i8, ptr %0, i64 2352
  %48 = load i64, ptr %47, align 8, !tbaa !198
  %49 = mul nsw i64 %48, %46
  %50 = load ptr, ptr %42, align 8, !tbaa !62
  %51 = getelementptr inbounds nuw i8, ptr %50, i64 %49
  %52 = getelementptr inbounds nuw i8, ptr %0, i64 2344
  %53 = load i8, ptr %52, align 8, !tbaa !197, !range !74, !noundef !75
  %54 = trunc nuw i8 %53 to i1
  br i1 %54, label %55, label %57

55:                                               ; preds = %41
  %56 = call noundef i64 @_ZNK11OpenImageIO6v3_1_09ImageSpec14scanline_bytesEb(ptr noundef nonnull align 8 dereferenceable(160) %18, i1 noundef zeroext false) #25
  call void @llvm.memcpy.p0.p0.i64(ptr nonnull align 1 %51, ptr align 1 %.022, i64 %56, i1 false)
  br label %67

57:                                               ; preds = %41
  %58 = getelementptr inbounds nuw i8, ptr %0, i64 2324
  %59 = load i32, ptr %58, align 4, !tbaa !126
  %60 = getelementptr inbounds nuw i8, ptr %0, i64 2320
  %61 = load i32, ptr %60, align 8, !tbaa !76
  %62 = getelementptr inbounds nuw i8, ptr %0, i64 2328
  %63 = load i32, ptr %62, align 8, !tbaa !128
  %64 = getelementptr inbounds nuw i8, ptr %18, i64 12
  %65 = load i32, ptr %64, align 4, !tbaa !121
  %66 = call noundef zeroext i1 @_ZN3dpx15ConvertToNativeENS_10DescriptorENS_8DataSizeENS_14CharacteristicEiiPKvPv(i32 noundef %59, i32 noundef %61, i32 noundef %63, i32 noundef %65, i32 noundef 1, ptr noundef %.022, ptr noundef nonnull %51)
  br i1 %66, label %67, label %68

67:                                               ; preds = %57, %55
  br label %68

68:                                               ; preds = %67, %57, %10
  %.0 = phi i1 [ false, %10 ], [ true, %67 ], [ false, %57 ]
  ret i1 %.0
}